; Function Attrs: mustprogress nofree norecurse nosync nounwind willreturn memory(argmem: read) uwtable
define noundef zeroext i1 @_ZNK10open_spiel16nine_mens_morris19NineMensMorrisState10IsTerminalEv(ptr nocapture noundef nonnull readonly align 8 dereferenceable(216) %0) unnamed_addr #9 align 2 {
  %2 = getelementptr inbounds nuw i8, ptr %0, i64 164
  %3 = load i32, ptr %2, align 4
  %4 = icmp sgt i32 %3, 199
  br i1 %4, label %18, label %5

5:                                                ; preds = %1
  %6 = getelementptr inbounds nuw i8, ptr %0, i64 180
  %7 = load i32, ptr %6, align 4
  %8 = icmp slt i32 %7, 3
  %9 = getelementptr inbounds i8, ptr %0, i64 184
  %10 = load i32, ptr %9, align 8
  %11 = icmp slt i32 %10, 3
  %or.cond = select i1 %8, i1 true, i1 %11
  br i1 %or.cond, label %18, label %12

12:                                               ; preds = %5
  %13 = getelementptr inbounds nuw i8, ptr %0, i64 192
  %14 = load ptr, ptr %13, align 8
  %15 = getelementptr inbounds i8, ptr %0, i64 200
  %16 = load ptr, ptr %15, align 8
  %17 = icmp eq ptr %14, %16
  br label %18

18:                                               ; preds = %12, %5, %1
  %19 = phi i1 [ true, %5 ], [ true, %1 ], [ %17, %12 ]
  ret i1 %19
}